EXPORTS

    ??0ArrayBufferView@WTF@@IEAA@V?$PassRefPtr@VArrayBuffer@WTF@@@1@I@Z
    ??0CString@WTF@@QEAA@PEBD@Z
    ??0CString@WTF@@QEAA@PEBD_K@Z
    ??0Collator@WTF@@QEAA@PEBD@Z
    ?description@JSValue@JSC@@QEBAPEADXZ
    ??0DateInstance@JSC@@IEAA@PEAVExecState@1@PEAVStructure@1@@Z
    ??0DefaultGCActivityCallback@JSC@@QEAA@PEAVHeap@1@@Z
    ??0DropAllLocks@JSLock@JSC@@QEAA@PEAVExecState@2@@Z
    ??0DropAllLocks@JSLock@JSC@@QEAA@PEAVJSGlobalData@2@@Z
    ??0DynamicGlobalObjectScope@JSC@@QEAA@AEAVJSGlobalData@1@PEAVJSGlobalObject@1@@Z
    ??0InternalFunction@JSC@@IEAA@PEAVJSGlobalObject@1@PEAVStructure@1@@Z
    ??0JSGlobalObject@JSC@@IEAA@AEAVJSGlobalData@1@PEAVStructure@1@PEBUGlobalObjectMethodTable@1@@Z
    ??0JSLockHolder@JSC@@QEAA@AEAVJSGlobalData@1@@Z
    ??0JSLockHolder@JSC@@QEAA@PEAVExecState@1@@Z
    ??0JSLockHolder@JSC@@QEAA@PEAVJSGlobalData@1@@Z
    ??0MD5@WTF@@QEAA@XZ
    ??0Mutex@WTF@@QEAA@XZ
    ??0ParallelEnvironment@WTF@@QEAA@P6AXPEAX@Z_KH@Z
    ??0RefCountedLeakCounter@WTF@@QEAA@PEBD@Z
    ??0RegExpObject@JSC@@IEAA@PEAVJSGlobalObject@1@PEAVStructure@1@PEAVRegExp@1@@Z
    ??0SHA1@WTF@@QEAA@XZ
    ??0StringObject@JSC@@IEAA@AEAVJSGlobalData@1@PEAVStructure@1@@Z
    ??0Structure@JSC@@AEAA@AEAVJSGlobalData@1@PEAVJSGlobalObject@1@VJSValue@1@AEBVTypeInfo@1@PEBUClassInfo@1@@Z
    ??0ThreadCondition@WTF@@QEAA@XZ
    ??0UString@JSC@@QEAA@PEBD@Z
    ??0UString@JSC@@QEAA@PEBDI@Z
    ??0UString@JSC@@QEAA@PEB_W@Z
    ??0UString@JSC@@QEAA@PEB_WI@Z
    ??0WTFThreadData@WTF@@QEAA@XZ
    ??0YarrPattern@Yarr@JSC@@QEAA@AEBVUString@2@_N1PEAPEBD@Z
    ??1ArrayBufferView@WTF@@UEAA@XZ
    ??1ClientData@JSGlobalData@JSC@@UEAA@XZ
    ??1Collator@WTF@@QEAA@XZ
    ??1Debugger@JSC@@UEAA@XZ
    ??1DropAllLocks@JSLock@JSC@@QEAA@XZ
    ??1JSGlobalData@JSC@@QEAA@XZ
    ??1JSGlobalObject@JSC@@QEAA@XZ
    ??1JSLockHolder@JSC@@QEAA@XZ
    ??1Mutex@WTF@@QEAA@XZ
    ??1RefCountedLeakCounter@WTF@@QEAA@XZ
    ??1SourceProviderCache@JSC@@QEAA@XZ
    ??1ThreadCondition@WTF@@QEAA@XZ
    ??1WTFThreadData@WTF@@QEAA@XZ
    ??1WeakHandleOwner@JSC@@UEAA@XZ
    ??8JSC@@YA_NAEBVUString@0@0@Z
    ??8WTF@@YA_NAEBVCString@0@0@Z
    ?EcmaScriptConverter@DoubleToStringConverter@double_conversion@WTF@@SAAEBV123@XZ
    ?StringToDouble@StringToDoubleConverter@double_conversion@WTF@@SANPEBD_KPEA_K@Z
    ?ToExponential@DoubleToStringConverter@double_conversion@WTF@@QEBA_NNHPEAVStringBuilder@23@@Z
    ?ToFixed@DoubleToStringConverter@double_conversion@WTF@@QEBA_NNHPEAVStringBuilder@23@@Z
    ?ToPrecision@DoubleToStringConverter@double_conversion@WTF@@QEBA_NNHPEAVStringBuilder@23@@Z
    ?ToShortest@DoubleToStringConverter@double_conversion@WTF@@QEBA_NNPEAVStringBuilder@23@@Z
    ?absoluteTimeToWaitTimeoutInterval@WTF@@YAKN@Z
    ?activityCallback@Heap@JSC@@QEAAPEAVGCActivityCallback@2@XZ
    ?add@AtomicString@WTF@@CA?AV?$PassRefPtr@VStringImpl@WTF@@@2@PEBD@Z
    ?add@Identifier@JSC@@CA?AV?$PassRefPtr@VStringImpl@WTF@@@WTF@@PEAVJSGlobalData@2@PEAVStringImpl@4@@Z
    ?add@Identifier@JSC@@SA?AV?$PassRefPtr@VStringImpl@WTF@@@WTF@@PEAVExecState@2@PEBD@Z
    ?add@PropertyNameArray@JSC@@QEAAXPEAVStringImpl@WTF@@@Z
    ?addBytes@MD5@WTF@@QEAAXPEBE_K@Z
    ?addBytes@SHA1@WTF@@QEAAXPEBE_K@Z
    ?addCurrentThread@MachineThreads@JSC@@QEAAXXZ
    ?addFinalizer@Heap@JSC@@QEAAXPEAVJSCell@2@P6AX0@Z@Z
    ?addPropertyTransition@Structure@JSC@@SAPEAV12@AEAVJSGlobalData@2@PEAV12@VPropertyName@2@IPEAVJSCell@2@AEAH@Z
    ?addPropertyTransitionToExistingStructure@Structure@JSC@@SAPEAV12@PEAV12@VPropertyName@2@IPEAVJSCell@2@AEAH@Z
    ?addPropertyWithoutTransition@Structure@JSC@@QEAAHAEAVJSGlobalData@2@VPropertyName@2@IPEAVJSCell@2@@Z
    ?addSlowCase@Identifier@JSC@@CA?AV?$PassRefPtr@VStringImpl@WTF@@@WTF@@PEAVExecState@2@PEAVStringImpl@4@@Z
    ?addSlowCase@Identifier@JSC@@CA?AV?$PassRefPtr@VStringImpl@WTF@@@WTF@@PEAVJSGlobalData@2@PEAVStringImpl@4@@Z
    ?addStaticGlobals@JSGlobalObject@JSC@@IEAAXPEAUGlobalPropertyInfo@12@H@Z
    ?allocateSlowCase@MarkedAllocator@JSC@@AEAAPEAXXZ
    ?append@StringBuilder@WTF@@QEAAXPEBEI@Z
    ?append@StringBuilder@WTF@@QEAAXPEB_WI@Z
    ?ascii@UString@JSC@@QEBA?AVCString@WTF@@XZ
    ?attach@Debugger@JSC@@QEAAXPEAVJSGlobalObject@2@@Z
    ?broadcast@ThreadCondition@WTF@@QEAAXXZ
    ?bufferLengthForStringDecimal@DecimalNumber@WTF@@QEBAIXZ
    ?bufferLengthForStringExponential@DecimalNumber@WTF@@QEBAIXZ
    ?byteCompile@Yarr@JSC@@YA?AV?$PassOwnPtr@UBytecodePattern@Yarr@JSC@@@WTF@@AEAUYarrPattern@12@PEAVBumpPointerAllocator@4@@Z
    ?byteSize@SourceProviderCache@JSC@@QEBAIXZ
    ?calculateDSTOffset@WTF@@YANNN@Z
    ?calculateStringHashAndLengthFromUTF8@Unicode@WTF@@YAIPEBD0AEAI1@Z
    ?calculateUTCOffset@WTF@@YAHXZ
    ?calculatedFunctionName@DebuggerCallFrame@JSC@@QEBA?AVUString@2@XZ
    ?call@JSC@@YA?AVJSValue@1@PEAVExecState@1@V21@W4CallType@1@AEBTCallData@1@1AEBVArgList@1@@Z
    ?callHostFunctionAsConstructor@JSC@@YAPEAXPEAVExecState@1@@Z
    ?callOnMainThread@WTF@@YAXP6AXPEAX@Z0@Z
    ?callOnMainThreadAndWait@WTF@@YAXP6AXPEAX@Z0@Z
    ?canShrink@StringBuilder@WTF@@QEBA_NXZ
    ?cancelCallOnMainThread@WTF@@YAXP6AXPEAX@Z0@Z
    ?capacity@Heap@JSC@@QEAA_KXZ
    ?changePrototypeTransition@Structure@JSC@@SAPEAV12@AEAVJSGlobalData@2@PEAV12@VJSValue@2@@Z
    ?checkCurrentIdentifierTable@Identifier@JSC@@CAXPEAVExecState@2@@Z
    ?checkCurrentIdentifierTable@Identifier@JSC@@CAXPEAVJSGlobalData@2@@Z
    ?checkSyntax@JSC@@YA_NPEAVExecState@1@AEBVSourceCode@1@PEAVJSValue@1@@Z
    ?checksum@MD5@WTF@@QEAAXAEAV?$Vector@E$0BA@@2@@Z
    ?className@JSObject@JSC@@SA?AVUString@2@PEBV12@@Z
    ?clear@SourceProviderCache@JSC@@QEAAXXZ
    ?clearRareData@JSGlobalObject@JSC@@CAXPEAVJSCell@2@@Z
    ?collate@Collator@WTF@@QEBA?AW4Result@12@PEB_W_K01@Z
    ?collectAllGarbage@Heap@JSC@@QEAAXXZ
    ?computeHash@SHA1@WTF@@QEAAXAEAV?$Vector@E$0BE@@2@@Z
    ?configurable@PropertyDescriptor@JSC@@QEBA_NXZ
    ?construct@JSC@@YAPEAVJSObject@1@PEAVExecState@1@VJSValue@1@W4ConstructType@1@AEBTConstructData@1@AEBVArgList@1@@Z
    ?constructArray@JSC@@YAPEAVJSArray@1@PEAVExecState@1@AEBVArgList@1@@Z
    ?constructEmptyObject@JSC@@YAPEAVJSObject@1@PEAVExecState@1@@Z
    ?constructFunctionSkippingEvalEnabledCheck@JSC@@YAPEAVJSObject@1@PEAVExecState@1@PEAVJSGlobalObject@1@AEBVArgList@1@AEBVIdentifier@1@AEBVUString@1@AEBVTextPosition@WTF@@@Z
    ?convertLatin1ToUTF8@Unicode@WTF@@YA?AW4ConversionResult@12@PEAPEBEPEBEPEAPEADPEAD@Z
    ?convertUTF16ToUTF8@Unicode@WTF@@YA?AW4ConversionResult@12@PEAPEB_WPEB_WPEAPEADPEAD_N@Z
    ?convertUTF8ToUTF16@Unicode@WTF@@YA?AW4ConversionResult@12@PEAPEBDPEBDPEAPEA_WPEA_W_N@Z
    ?create@JSFunction@JSC@@SAPEAV12@PEAVExecState@2@PEAVJSGlobalObject@2@HAEBVUString@2@P6APEAX0@ZW4Intrinsic@2@3@Z
    ?create@JSGlobalData@JSC@@SA?AV?$PassRefPtr@VJSGlobalData@JSC@@@WTF@@W4ThreadStackType@2@W4HeapType@2@@Z
    ?create@OpaqueJSString@@SA?AV?$PassRefPtr@UOpaqueJSString@@@WTF@@AEBVUString@JSC@@@Z
    ?create@RegExp@JSC@@SAPEAV12@AEAVJSGlobalData@2@AEBVUString@2@W4RegExpFlags@2@@Z
    ?createEmptyString@SmallStrings@JSC@@AEAAXPEAVJSGlobalData@2@@Z
    ?createError@JSC@@YAPEAVJSObject@1@PEAVExecState@1@AEBVUString@1@@Z
    ?createInterruptedExecutionException@JSC@@YAPEAVJSObject@1@PEAVJSGlobalData@1@@Z
    ?createLeaked@JSGlobalData@JSC@@SA?AV?$PassRefPtr@VJSGlobalData@JSC@@@WTF@@W4ThreadStackType@2@W4HeapType@2@@Z
    ?createNotEnoughArgumentsError@JSC@@YAPEAVJSObject@1@PEAVExecState@1@@Z
    ?createRangeError@JSC@@YAPEAVJSObject@1@PEAVExecState@1@AEBVUString@1@@Z
    ?createReferenceError@JSC@@YAPEAVJSObject@1@PEAVExecState@1@AEBVUString@1@@Z
    ?createSingleCharacterString@SmallStrings@JSC@@AEAAXPEAVJSGlobalData@2@E@Z
    ?createStackOverflowError@JSC@@YAPEAVJSObject@1@PEAVExecState@1@@Z
    ?createSyntaxError@JSC@@YAPEAVJSObject@1@PEAVExecState@1@AEBVUString@1@@Z
    ?createTable@HashTable@JSC@@AEBAXPEAVJSGlobalData@2@@Z
    ?createThread@WTF@@YAIP6APEAXPEAX@Z0@Z
    ?createThread@WTF@@YAIP6APEAXPEAX@Z0PEBD@Z
    ?createThread@WTF@@YAIP6AXPEAX@Z0PEBD@Z
    ?createTypeError@JSC@@YAPEAVJSObject@1@PEAVExecState@1@AEBVUString@1@@Z
    ?cryptographicallyRandomNumber@WTF@@YAIXZ
    ?cryptographicallyRandomValues@WTF@@YAXPEAX_K@Z
    ?currentThread@WTF@@YAIXZ
    ?currentTime@WTF@@YANXZ
    ?data@CString@WTF@@QEBAPEBDXZ
    ?dataLog@WTF@@YAXPEBDZZ
    ?dateToDaysFrom1970@WTF@@YANHHH@Z
    ?dayInMonthFromDayInYear@WTF@@YAHH_N@Z
    ?dayInYear@WTF@@YAHNH@Z
    ?decrement@RefCountedLeakCounter@WTF@@QEAAXXZ
    ?defaultValue@JSObject@JSC@@SA?AVJSValue@2@PEBV12@PEAVExecState@2@W4PreferredPrimitiveType@2@@Z
    ?defineOwnProperty@JSGlobalObject@JSC@@SA_NPEAVJSObject@2@PEAVExecState@2@VPropertyName@2@AEAVPropertyDescriptor@2@_N@Z
    ?defineOwnProperty@JSObject@JSC@@SA_NPEAV12@PEAVExecState@2@VPropertyName@2@AEAVPropertyDescriptor@2@_N@Z
    ?deleteOwnedPtr@WTF@@YAXPEAUHBITMAP__@@@Z
    ?deleteOwnedPtr@WTF@@YAXPEAUHBRUSH__@@@Z
    ?deleteOwnedPtr@WTF@@YAXPEAUHDC__@@@Z
    ?deleteOwnedPtr@WTF@@YAXPEAUHFONT__@@@Z
    ?deleteOwnedPtr@WTF@@YAXPEAUHRGN__@@@Z
    ?deleteProperty@JSObject@JSC@@SA_NPEAVJSCell@2@PEAVExecState@2@VPropertyName@2@@Z
    ?deleteProperty@JSSymbolTableObject@JSC@@SA_NPEAVJSCell@2@PEAVExecState@2@VPropertyName@2@@Z
    ?deletePropertyByIndex@JSObject@JSC@@SA_NPEAVJSCell@2@PEAVExecState@2@I@Z
    ?deleteTable@HashTable@JSC@@QEBAXXZ
    ?despecifyDictionaryFunction@Structure@JSC@@QEAAXAEAVJSGlobalData@2@VPropertyName@2@@Z
    ?despecifyFunctionTransition@Structure@JSC@@SAPEAV12@AEAVJSGlobalData@2@PEAV12@VPropertyName@2@@Z
    ?destroy@JSCell@JSC@@KAXPEAV12@@Z
    ?destroy@JSGlobalObject@JSC@@SAXPEAVJSCell@2@@Z
    ?destroy@OutOfLineBits@BitVector@WTF@@SAXPEAV123@@Z
    ?detach@Debugger@JSC@@UEAAXPEAVJSGlobalObject@2@@Z
    ?detachThread@WTF@@YAXI@Z
    ?didTimeOut@TimeoutChecker@JSC@@QEAA_NPEAVExecState@2@@Z
    ?deleteAllCompiledCode@Heap@JSC@@QEAAXXZ
    ?displayName@JSFunction@JSC@@QEAA?BVUString@2@PEAVExecState@2@@Z
    ?dtoa@WTF@@YAXQEADNAEA_NAEAHAEAI@Z
    ?dumpAllOptions@Options@JSC@@SAXPEAU_iobuf@@@Z
    ?dumpSampleData@JSGlobalData@JSC@@QEAAXPEAVExecState@2@@Z
    ?empty@StringImpl@WTF@@SAPEAV12@XZ
    ?enumerable@PropertyDescriptor@JSC@@QEBA_NXZ
    ?equalUTF16WithUTF8@Unicode@WTF@@YA_NPEB_W0PEBD1@Z
    ?evaluate@DebuggerCallFrame@JSC@@QEBA?AVJSValue@2@AEBVUString@2@AEAV32@@Z
    ?evaluate@JSC@@YA?AVJSValue@1@PEAVExecState@1@PEAVScopeChainNode@1@AEBVSourceCode@1@V21@PEAV21@@Z
    ?exclude@Profile@JSC@@QEAAXPEBVProfileNode@2@@Z
    ?execute@ParallelEnvironment@WTF@@QEAAXPEAX@Z
    ?expand@MarkStackArray@JSC@@AEAAXXZ
    ?fastCalloc@WTF@@YAPEAX_K0@Z
    ?fastFree@WTF@@YAXPEAX@Z
    ?fastMalloc@WTF@@YAPEAX_K@Z
    ?fastMallocMatchFailed@Internal@WTF@@YAXPEAX@Z
    ?fastMallocSize@WTF@@YA_KPEBX@Z
    ?fastMallocStatistics@WTF@@YA?AUFastMallocStatistics@1@XZ
    ?fastRealloc@WTF@@YAPEAXPEAX_K@Z
    ?fastStrDup@WTF@@YAPEADPEBD@Z
    ?fastZeroedMalloc@WTF@@YAPEAX_K@Z
    ?fillGetterPropertySlot@JSObject@JSC@@AEAAXAEAVPropertySlot@2@PEAV?$WriteBarrierBase@W4Unknown@JSC@@@2@@Z
    ?finalize@WeakHandleOwner@JSC@@UEAAXV?$Handle@W4Unknown@JSC@@@2@PEAX@Z
    ?findAllocator@WeakSet@JSC@@AEAAPEAUFreeCell@WeakBlock@2@XZ
    ?finishCreation@DateInstance@JSC@@IEAAXAEAVJSGlobalData@2@N@Z
    ?finishCreation@InternalFunction@JSC@@IEAAXAEAVJSGlobalData@2@AEBVUString@2@@Z
    ?finishCreation@JSArray@JSC@@IEAAXAEAVJSGlobalData@2@I@Z
    ?finishCreation@RegExpObject@JSC@@IEAAXPEAVJSGlobalObject@2@@Z
    ?finishCreation@StringObject@JSC@@IEAAXAEAVJSGlobalData@2@PEAVJSString@2@@Z
    ?focus@Profile@JSC@@QEAAXPEBVProfileNode@2@@Z
    ?freeFatEntrySlow@SymbolTableEntry@JSC@@AEAAXXZ
    ?from@Identifier@JSC@@SA?AV12@PEAVExecState@2@H@Z
    ?from@Identifier@JSC@@SA?AV12@PEAVExecState@2@I@Z
    ?functionGetter@PropertySlot@JSC@@AEBA?AVJSValue@2@PEAVExecState@2@@Z
    ?functionName@DebuggerCallFrame@JSC@@QEBAPEBVUString@2@XZ
    ?getCalculatedDisplayName@JSC@@YA?AVUString@1@PEAVExecState@1@PEAVJSObject@1@@Z
    ?getCallData@JSCell@JSC@@SA?AW4CallType@2@PEAV12@AEATCallData@2@@Z
    ?getCallableObjectSlow@JSC@@YAPEAVJSCell@1@PEAV21@@Z
    ?getConstructData@JSCell@JSC@@SA?AW4ConstructType@2@PEAV12@AEATConstructData@2@@Z
    ?getCurrentLocalTime@WTF@@YAXPEAUtm@@@Z
    ?getObject@JSCell@JSC@@QEAAPEAVJSObject@2@XZ
    ?getOwnPropertyDescriptor@JSGlobalObject@JSC@@SA_NPEAVJSObject@2@PEAVExecState@2@VPropertyName@2@AEAVPropertyDescriptor@2@@Z
    ?getOwnPropertyDescriptor@JSObject@JSC@@SA_NPEAV12@PEAVExecState@2@VPropertyName@2@AEAVPropertyDescriptor@2@@Z
    ?getOwnPropertyNames@JSObject@JSC@@SAXPEAV12@PEAVExecState@2@AEAVPropertyNameArray@2@W4EnumerationMode@2@@Z
    ?getOwnPropertyNames@JSSymbolTableObject@JSC@@SAXPEAVJSObject@2@PEAVExecState@2@AEAVPropertyNameArray@2@W4EnumerationMode@2@@Z
    ?getOwnPropertySlot@JSGlobalObject@JSC@@SA_NPEAVJSCell@2@PEAVExecState@2@VPropertyName@2@AEAVPropertySlot@2@@Z
    ?getOwnPropertySlotByIndex@JSArray@JSC@@SA_NPEAVJSCell@2@PEAVExecState@2@IAEAVPropertySlot@2@@Z
    ?getOwnPropertySlotByIndex@JSObject@JSC@@SA_NPEAVJSCell@2@PEAVExecState@2@IAEAVPropertySlot@2@@Z
    ?getPropertyNames@JSObject@JSC@@SAXPEAV12@PEAVExecState@2@AEAVPropertyNameArray@2@W4EnumerationMode@2@@Z
    ?getSlice@ArgList@JSC@@QEBAXHAEAV12@@Z
    ?getStackTrace@Interpreter@JSC@@SAXPEAVJSGlobalData@2@AEAV?$Vector@UStackFrame@JSC@@$0A@@WTF@@@Z
    ?getString@JSCell@JSC@@QEBA?AVUString@2@PEAVExecState@2@@Z
    ?getString@JSCell@JSC@@QEBA_NPEAVExecState@2@AEAVUString@2@@Z
    ?get@Structure@JSC@@QEAAHAEAVJSGlobalData@2@VPropertyName@2@AEAIAEAPEAVJSCell@2@@Z
    ?getter@PropertyDescriptor@JSC@@QEBA?AVJSValue@2@XZ
    ?globalExec@JSGlobalObject@JSC@@QEAAPEAVExecState@2@XZ
    ?globalObjectCount@Heap@JSC@@QEAA_KXZ
    ?growOutOfLineStorage@JSObject@JSC@@QEAAPEAV?$WriteBarrierBase@W4Unknown@JSC@@@2@AEAVJSGlobalData@2@_K1@Z
    ?grow@HandleSet@JSC@@AEAAXXZ
    ?hasInstance@JSObject@JSC@@SA_NPEAV12@PEAVExecState@2@VJSValue@2@2@Z
    ?hasProperty@JSObject@JSC@@QEBA_NPEAVExecState@2@I@Z
    ?hasProperty@JSObject@JSC@@QEBA_NPEAVExecState@2@VPropertyName@2@@Z
    ?hashSlowCase@StringImpl@WTF@@AEBAIXZ
    ?heap@Heap@JSC@@SAPEAV12@VJSValue@2@@Z
    ?increment@RefCountedLeakCounter@WTF@@QEAAXXZ
    ?init@AtomicString@WTF@@SAXXZ
    ?init@JSGlobalObject@JSC@@AEAAXPEAVJSObject@2@@Z
    ?initialize@double_conversion@WTF@@YAXXZ
    ?initializeMainThread@WTF@@YAXXZ
    ?initializeThreading@JSC@@YAXXZ
    ?initializeThreading@WTF@@YAXXZ
    ?interpret@Yarr@JSC@@YAIPEAUBytecodePattern@12@AEBVUString@2@IPEAI@Z
    ?isAccessorDescriptor@PropertyDescriptor@JSC@@QEBA_NXZ
    ?isBusy@Heap@JSC@@QEAA_NXZ
    ?isDataDescriptor@PropertyDescriptor@JSC@@QEBA_NXZ
    ?isHostFunctionNonInline@JSFunction@JSC@@AEBA_NXZ
    ?isMainThread@WTF@@YA_NXZ
    ?isReachableFromOpaqueRoots@WeakHandleOwner@JSC@@UEAA_NV?$Handle@W4Unknown@JSC@@@2@PEAXAEAVSlotVisitor@2@@Z
    ?isTerminatedExecutionException@JSC@@YA_NVJSValue@1@@Z
    ?isValidAllocation@Heap@JSC@@AEAA_N_K@Z
    ?isValidCallee@JSValue@JSC@@QEAA_NXZ
    ?jsOwnedString@JSC@@YAPEAVJSString@1@PEAVJSGlobalData@1@AEBVUString@1@@Z
    ?jsString@JSC@@YAPEAVJSString@1@PEAVJSGlobalData@1@AEBVUString@1@@Z
    ?length@CString@WTF@@QEBA_KXZ
    ?lock@JSLock@JSC@@QEAAXXZ
    ?lock@Mutex@WTF@@QEAAXXZ
    ?lockAtomicallyInitializedStaticMutex@WTF@@YAXXZ
    ?match@RegExp@JSC@@QEAAHAEAVJSGlobalData@2@AEBVUString@2@IAEAV?$Vector@H$0CA@@WTF@@@Z
    ?materializePropertyMap@Structure@JSC@@AEAAXAEAVJSGlobalData@2@@Z
    ?monotonicallyIncreasingTime@WTF@@YANXZ
    ?monthFromDayInYear@WTF@@YAHH_N@Z
    ?msToYear@WTF@@YAHN@Z
    ?name@InternalFunction@JSC@@QEAAAEBVUString@2@PEAVExecState@2@@Z
    ?name@JSFunction@JSC@@QEAAAEBVUString@2@PEAVExecState@2@@Z
    ?neuter@ArrayBufferView@WTF@@MEAAXXZ
    ?newUninitialized@CString@WTF@@SA?AV12@_KAEAPEAD@Z
    ?notifyWriteSlow@SymbolTableEntry@JSC@@AEAAXXZ
    ?nullptr@@3Vnullptr_t@std@@A
    ?number@String@WTF@@SA?AV12@NII@Z
    ?number@UString@JSC@@SA?AV12@H@Z
    ?number@UString@JSC@@SA?AV12@I@Z
    ?number@UString@JSC@@SA?AV12@N@Z
	?number@UString@JSC@@SA?AV12@_J@Z
    ?numberToFixedPrecisionString@WTF@@YAPEBDNIQEAD_N@Z
    ?numberToFixedWidthString@WTF@@YAPEBDNIQEAD@Z
    ?numberToString@WTF@@YAPEBDNQEAD@Z
    ?objectCount@Heap@JSC@@QEAA_KXZ
    ?objectProtoFuncToString@JSC@@YAPEAXPEAVExecState@1@@Z
    ?objectTypeCounts@Heap@JSC@@QEAA?AV?$PassOwnPtr@V?$HashCountedSet@PEBDU?$PtrHash@PEBD@WTF@@U?$HashTraits@PEBD@2@@WTF@@@WTF@@XZ
    ?parseDateFromNullTerminatedCharacters@WTF@@YANPEBD@Z
    ?parseDoubleFromLongString@Internal@WTF@@YANPEB_W_KAEA_K@Z
    ?profiler@Profiler@JSC@@SAPEAV12@XZ
    ?protect@Heap@JSC@@QEAAXVJSValue@2@@Z
    ?protectedGlobalObjectCount@Heap@JSC@@QEAA_KXZ
    ?protectedObjectCount@Heap@JSC@@QEAA_KXZ
    ?protectedObjectTypeCounts@Heap@JSC@@QEAA?AV?$PassOwnPtr@V?$HashCountedSet@PEBDU?$PtrHash@PEBD@WTF@@U?$HashTraits@PEBD@2@@WTF@@@WTF@@XZ
    ?put@JSGlobalObject@JSC@@SAXPEAVJSCell@2@PEAVExecState@2@VPropertyName@2@VJSValue@2@AEAVPutPropertySlot@2@@Z
    ?put@JSObject@JSC@@SAXPEAVJSCell@2@PEAVExecState@2@VPropertyName@2@VJSValue@2@AEAVPutPropertySlot@2@@Z
    ?putByIndex@JSObject@JSC@@SAXPEAVJSCell@2@PEAVExecState@2@IVJSValue@2@_N@Z
    ?putDirectIndexBeyondVectorLength@JSArray@JSC@@AEAA_NPEAVExecState@2@IVJSValue@2@_N@Z
    ?putDirectVirtual@JSGlobalObject@JSC@@SAXPEAVJSObject@2@PEAVExecState@2@VPropertyName@2@VJSValue@2@I@Z
    ?putDirectVirtual@JSObject@JSC@@SAXPEAV12@PEAVExecState@2@VPropertyName@2@VJSValue@2@I@Z
    ?randomNumber@WTF@@YANXZ
    ?recompileAllJSFunctions@Debugger@JSC@@QEAAXPEAVJSGlobalData@2@@Z
    ?regExpFlags@JSC@@YA?AW4RegExpFlags@1@AEBVUString@1@@Z
    ?reifyString@StringBuilder@WTF@@AEBAXXZ
    ?releaseDecommitted@OSAllocator@WTF@@SAXPEAX_K@Z
    ?releaseExecutableMemory@JSGlobalData@JSC@@QEAAXXZ
    ?removeBlock@MarkedAllocator@JSC@@QEAAXPEAVMarkedBlock@2@@Z
    ?reportAbandonedObjectGraph@Heap@JSC@@QEAAXXZ
    ?reportExtraMemoryCostSlowCase@Heap@JSC@@AEAAX_K@Z
    ?reserveAndCommit@OSAllocator@WTF@@SAPEAX_KW4Usage@12@_N22@Z
    ?reserveCapacity@StringBuilder@WTF@@QEAAXI@Z
    ?reset@ParserArena@JSC@@QEAAXXZ
    ?reset@TimeoutChecker@JSC@@QEAAXXZ
    ?resetDateCache@JSGlobalData@JSC@@QEAAXXZ
    ?resize@StringBuilder@WTF@@QEAAXI@Z
    ?resizeOutOfLine@BitVector@WTF@@AEAAX_K@Z
    ?resolveRope@JSRopeString@JSC@@AEBAXPEAVExecState@2@@Z
    ?restoreAll@Profile@JSC@@QEAAXXZ
    ?retrieveCallerFromVMCode@Interpreter@JSC@@QEBA?AVJSValue@2@PEAVExecState@2@PEAVJSFunction@2@@Z
    ?retrieveLastCaller@Interpreter@JSC@@QEBAXPEAVExecState@2@AEAHAEA_JAEAVUString@2@AEAVJSValue@2@@Z
    ?setConfigurable@PropertyDescriptor@JSC@@QEAAX_N@Z
    ?setDescriptor@PropertyDescriptor@JSC@@QEAAXVJSValue@2@I@Z
    ?setDumpsGeneratedCode@BytecodeGenerator@JSC@@SAX_N@Z
    ?setEnumerable@PropertyDescriptor@JSC@@QEAAX_N@Z
    ?setGarbageCollectionTimerEnabled@Heap@JSC@@QEAAX_N@Z
    ?setGetter@PropertyDescriptor@JSC@@QEAAXVJSValue@2@@Z
    ?setLoc@StatementNode@JSC@@QEAAXHH@Z
    ?setMainThreadCallbacksPaused@WTF@@YAX_N@Z
    ?setOption@Options@JSC@@SA_NPEBD@Z
    ?setOrderLowerFirst@Collator@WTF@@QEAAX_N@Z
    ?setPrototype@JSObject@JSC@@QEAAXAEAVJSGlobalData@2@VJSValue@2@@Z
    ?setSetter@PropertyDescriptor@JSC@@QEAAXVJSValue@2@@Z
    ?setUndefined@PropertyDescriptor@JSC@@QEAAXXZ
    ?setUnwrappedObject@JSGlobalThis@JSC@@IEAAXAEAVJSGlobalData@2@PEAVJSGlobalObject@2@@Z
    ?setUpStaticFunctionSlot@JSC@@YA_NPEAVExecState@1@PEBVHashEntry@1@PEAVJSObject@1@VPropertyName@1@AEAVPropertySlot@1@@Z
    ?setWritable@PropertyDescriptor@JSC@@QEAAX_N@Z
    ?setter@PropertyDescriptor@JSC@@QEBA?AVJSValue@2@XZ
    ?shrinkToFit@StringBuilder@WTF@@QEAAXXZ
    ?signal@ThreadCondition@WTF@@QEAAXXZ
    ?singleCharacterStringRep@SmallStrings@JSC@@QEAAPEAVStringImpl@WTF@@E@Z
    ?size@Heap@JSC@@QEAA_KXZ
    ?slowAppend@MarkedArgumentBuffer@JSC@@AEAAXVJSValue@2@@Z
    ?slowValidateCell@JSC@@YAXPEAVJSCell@1@@Z
    ?slowValidateCell@JSC@@YAXPEAVJSGlobalObject@1@@Z
    ?sourceCode@JSFunction@JSC@@QEBAPEBVSourceCode@2@XZ
    ?startProfiling@Profiler@JSC@@QEAAXPEAVExecState@2@AEBVUString@2@@Z
    ?startSampling@JSGlobalData@JSC@@QEAAXXZ
    ?stopProfiling@Profiler@JSC@@QEAA?AV?$PassRefPtr@VProfile@JSC@@@WTF@@PEAVExecState@2@AEBVUString@2@@Z
    ?stopSampling@JSGlobalData@JSC@@QEAAXXZ
    ?substringSharingImpl@UString@JSC@@QEBA?AV12@II@Z
    ?suggestedNewOutOfLineStorageCapacity@Structure@JSC@@QEAA_KXZ
    ?sweeper@Heap@JSC@@QEAAPEAVIncrementalSweeper@2@XZ
    ?synthesizePrototype@JSValue@JSC@@QEBAPEAVJSObject@2@PEAVExecState@2@@Z
    ?thisObject@DebuggerCallFrame@JSC@@QEBAPEAVJSObject@2@XZ
    ?throwError@JSC@@YA?AVJSValue@1@PEAVExecState@1@V21@@Z
    ?throwError@JSC@@YAPEAVJSObject@1@PEAVExecState@1@PEAV21@@Z
    ?throwSyntaxError@JSC@@YAPEAVJSObject@1@PEAVExecState@1@@Z
    ?throwTypeError@JSC@@YAPEAVJSObject@1@PEAVExecState@1@@Z
    ?throwTypeError@JSC@@YAPEAVJSObject@1@PEAVExecState@1@AEBVUString@1@@Z
    ?timedWait@ThreadCondition@WTF@@QEAA_NAEAVMutex@2@N@Z
    ?tlsKeyCount@WTF@@YAAEAJXZ
    ?tlsKeys@WTF@@YAPEAKXZ
    ?toBoolean@JSString@JSC@@QEBA_NXZ
    ?toInt32@JSC@@YAHN@Z
    ?toInteger@JSValue@JSC@@QEBANPEAVExecState@2@@Z
    ?toNumberSlowCase@JSValue@JSC@@AEBANPEAVExecState@2@@Z
    ?toObject@JSCell@JSC@@QEBAPEAVJSObject@2@PEAVExecState@2@PEAVJSGlobalObject@2@@Z
    ?toObjectSlowCase@JSValue@JSC@@AEBAPEAVJSObject@2@PEAVExecState@2@PEAVJSGlobalObject@2@@Z
    ?toString@JSObject@JSC@@QEBAPEAVJSString@2@PEAVExecState@2@@Z
    ?toStringDecimal@DecimalNumber@WTF@@QEBAIPEA_WI@Z
    ?toStringExponential@DecimalNumber@WTF@@QEBAIPEA_WI@Z
    ?toStringSlowCase@JSValue@JSC@@AEBAPEAVJSString@2@PEAVExecState@2@@Z
    ?toThisObject@JSObject@JSC@@SAPEAV12@PEAVJSCell@2@PEAVExecState@2@@Z
    ?toThisObjectSlowCase@JSValue@JSC@@AEBAPEAVJSObject@2@PEAVExecState@2@@Z
    ?transfer@ArrayBuffer@WTF@@QEAA_NAEAVArrayBufferContents@2@AEAV?$Vector@V?$RefPtr@VArrayBufferView@WTF@@@WTF@@$0A@@2@@Z
    ?tryFastCalloc@WTF@@YA?AUTryMallocReturnValue@1@_K0@Z
    ?tryFastMalloc@WTF@@YA?AUTryMallocReturnValue@1@_K@Z
    ?tryFastRealloc@WTF@@YA?AUTryMallocReturnValue@1@PEAX_K@Z
    ?tryFinishCreationUninitialized@JSArray@JSC@@IEAAPEAV12@AEAVJSGlobalData@2@I@Z
    ?tryLock@Mutex@WTF@@QEAA_NXZ
    ?type@DebuggerCallFrame@JSC@@QEBA?AW4Type@12@XZ
    ?unlock@JSLock@JSC@@QEAAXXZ
    ?unlock@Mutex@WTF@@QEAAXXZ
    ?unlockAtomicallyInitializedStaticMutex@WTF@@YAXXZ
    ?unprotect@Heap@JSC@@QEAA_NVJSValue@2@@Z
    ?utf8@UString@JSC@@QEBA?AVCString@WTF@@_N@Z
    ?validate@MarkStack@JSC@@KAXPEAVJSCell@2@@Z
    ?visitChildren@JSGlobalObject@JSC@@SAXPEAVJSCell@2@AEAVSlotVisitor@2@@Z
    ?visitChildren@JSGlobalThis@JSC@@KAXPEAVJSCell@2@AEAVSlotVisitor@2@@Z
    ?visitChildren@JSObject@JSC@@SAXPEAVJSCell@2@AEAVSlotVisitor@2@@Z
    ?wait@ThreadCondition@WTF@@QEAAXAEAVMutex@2@@Z
    ?waitForThreadCompletion@WTF@@YAHI@Z
    ?waitForThreadCompletion@WTF@@YAHIPEAPEAX@Z
    ?writable@PropertyDescriptor@JSC@@QEBA_NXZ
    ?writeBarrier@HandleSet@JSC@@QEAAXPEAVJSValue@2@AEBV32@@Z
    ?yield@WTF@@YAXXZ
    WTFGetBacktrace
    WTFInvokeCrashHook
    WTFLog
    WTFLogAlways
    WTFLogVerbose
    WTFReportArgumentAssertionFailure
    WTFReportAssertionFailure
    WTFReportAssertionFailureWithMessage
    WTFReportBacktrace
    WTFReportError
    WTFSetCrashHook
