EXPORTS
        DllGetClassObject   PRIVATE
        DllCanUnloadNow     PRIVATE
        DllRegisterServer   PRIVATE
        DllUnregisterServer PRIVATE
        RunAsLocalServer    PRIVATE
        LocalServerDidDie   PRIVATE
        setUseOpenSourceWebKit
        shutDownWebKit
        progIDForClass
        WebLocalizedStringUTF8
        WebLocalizedLPCTSTRUTF8
        WebKitCreateInstance
		
        ; These functions are deprecated
        WebLocalizedString
        WebLocalizedLPCTSTR
        SetWebLocalizedStringMainBundle

		; Deprecated re-exports from JavaScriptCore
        JSCheckScriptSyntax
        JSClassCreate
        JSClassRelease
        JSClassRetain
        JSContextGetGlobalObject
        JSContextGetGroup
        JSContextGroupCreate
        JSContextGroupRelease
        JSContextGroupRetain
        JSEvaluateScript
        JSGarbageCollect
        JSGlobalContextCreate
        JSGlobalContextCreateInGroup
        JSGlobalContextRelease
        JSGlobalContextRetain
        JSObjectCallAsConstructor
        JSObjectCallAsFunction
        JSObjectCopyPropertyNames
        JSObjectDeleteProperty
        JSObjectGetPrivate
        JSObjectGetProperty
        JSObjectGetPropertyAtIndex
        JSObjectGetPrototype
        JSObjectHasProperty
        JSObjectIsConstructor
        JSObjectIsFunction
        JSObjectMake
        JSObjectMakeArray
        JSObjectMakeConstructor
        JSObjectMakeDate
        JSObjectMakeError
        JSObjectMakeFunction
        JSObjectMakeFunctionWithCallback
        JSObjectMakeRegExp
        JSObjectSetPrivate
        JSObjectSetProperty
        JSObjectSetPropertyAtIndex
        JSObjectSetPrototype
        JSPropertyNameAccumulatorAddName
        JSPropertyNameArrayGetCount
        JSPropertyNameArrayGetNameAtIndex
        JSPropertyNameArrayRelease
        JSPropertyNameArrayRetain
        JSStringCopyBSTR
        JSStringCopyCFString
        JSStringCreateWithBSTR
        JSStringCreateWithCFString
        JSStringCreateWithCharacters
        JSStringCreateWithUTF8CString
        JSStringGetCharactersPtr
        JSStringGetLength
        JSStringGetMaximumUTF8CStringSize
        JSStringGetUTF8CString
        JSStringIsEqual
        JSStringIsEqualToUTF8CString
        JSStringRelease
        JSStringRetain
        JSValueGetType
        JSValueIsBoolean
        JSValueIsEqual
        JSValueIsInstanceOfConstructor
        JSValueIsNull
        JSValueIsNumber
        JSValueIsObject
        JSValueIsObjectOfClass
        JSValueIsStrictEqual
        JSValueIsString
        JSValueIsUndefined
        JSValueMakeBoolean
        JSValueMakeNull
        JSValueMakeNumber
        JSValueMakeString
        JSValueMakeUndefined
        JSValueProtect
        JSValueToBoolean
        JSValueToNumber
        JSValueToObject
        JSValueToStringCopy
        JSValueUnprotect
        ?fastMalloc@WTF@@YAPEAX_K@Z
        ?fastZeroedMalloc@WTF@@YAPEAX_K@Z
        ?fastFree@WTF@@YAXPEAX@Z
        ?fastCalloc@WTF@@YAPEAX_K0@Z
        ??0Mutex@WTF@@QEAA@XZ
        ??0ThreadCondition@WTF@@QEAA@XZ
        ??1Mutex@WTF@@QEAA@XZ
        ??1StringImpl@WTF@@QEAA@XZ
        ??1ThreadCondition@WTF@@QEAA@XZ
        ?broadcast@ThreadCondition@WTF@@QEAAXXZ
        ?callOnMainThread@WTF@@YAXP6AXPEAX@Z0@Z
		?addTextMatchMarker@DocumentMarkerController@WebCore@@QEAAXPEBVRange@2@_N@Z
		?iconURLs@Document@WebCore@@QEAAAEBV?$Vector@UIconURL@WebCore@@$0A@@WTF@@XZ
        ?consoleMessageArgumentCounts@InspectorConsoleAgent@WebCore@@QEAA?AV?$Vector@I$0A@@WTF@@XZ
        ?counterValue@InspectorCounters@WebCore@@SAHW4CounterType@12@@Z
        ?counterValueForElement@WebCore@@YA?AVString@WTF@@PEAVElement@1@@Z
        ?createThread@WTF@@YAIP6APEAXPEAX@Z0PEBD@Z
        ?createThread@WTF@@YAIP6AXPEAX@Z0PEBD@Z
        ?currentThread@WTF@@YAIXZ
        ?detachThread@WTF@@YAXI@Z
        ?didBeginFrameImpl@InspectorInstrumentation@WebCore@@CAXPEAVInstrumentingAgents@2@@Z
        ?didCancelFrameImpl@InspectorInstrumentation@WebCore@@CAXPEAVInstrumentingAgents@2@@Z
        ?initializeMainThread@WTF@@YAXXZ
        ?initializeThreading@WTF@@YAXXZ
        ?instrumentationForPage@WebCore@@YAPEAVInstrumentingAgents@1@PEAVPage@1@@Z
        ?isMainThread@WTF@@YA_NXZ
        ?lock@Mutex@WTF@@QEAAXXZ
        ?lockAtomicallyInitializedStaticMutex@WTF@@YAXXZ
        ?signal@ThreadCondition@WTF@@QEAAXXZ
        ?timedWait@ThreadCondition@WTF@@QEAA_NAEAVMutex@2@N@Z
        ?tlsKeyCount@WTF@@YAAEAJXZ
        ?tlsKeys@WTF@@YAPEAKXZ
        ?tryLock@Mutex@WTF@@QEAA_NXZ
        ?unlock@Mutex@WTF@@QEAAXXZ
        ?unlockAtomicallyInitializedStaticMutex@WTF@@YAXXZ
        ?wait@ThreadCondition@WTF@@QEAAXAEAVMutex@2@@Z
        ?waitForThreadCompletion@WTF@@YAHI@Z
        ?waitForThreadCompletion@WTF@@YAHIPEAPEAX@Z
        ?createThread@WTF@@YAIP6APEAXPEAX@Z0@Z
        ; Re-exports from WebCore for test harnesses
        ??0NodeRenderingContext@WebCore@@QEAA@PEAVNode@1@@Z
        ??1NodeRenderingContext@WebCore@@QEAA@XZ
        ??1Range@WebCore@@QEAA@XZ
        ?toNode@WebCore@@YAPEAVNode@1@VJSValue@JSC@@@Z
        ??0ClientRect@WebCore@@AEAA@AEBVIntRect@1@@Z
        ??0ClientRect@WebCore@@AEAA@XZ
        ??0ClientRectList@WebCore@@AEAA@XZ
        ??0ClientRectList@WebCore@@AEAA@AEBV?$Vector@VFloatQuad@WebCore@@$0A@@WTF@@@Z
        ??1ClientRectList@WebCore@@QEAA@XZ
        ??0String@WTF@@QEAA@PEBD@Z
        ??0String@WTF@@QEAA@PEB_W@Z
        ??1ContextDestructionObserver@WebCore@@MEAA@XZ
        ?contextDestroyed@ContextDestructionObserver@WebCore@@UEAAXXZ
        ??0ContextDestructionObserver@WebCore@@QEAA@PEAVScriptExecutionContext@1@@Z
        ?absoluteBoundingBoxRect@RenderObject@WebCore@@QEBA?AVIntRect@2@_N@Z
        ?absoluteBoundingBoxRectIgnoringTransforms@RenderObject@WebCore@@QEBA?AVIntRect@2@XZ
        ?description@DocumentMarker@WebCore@@QEBAAEBVString@WTF@@XZ
        ?add@AtomicString@WTF@@CA?AV?$PassRefPtr@VStringImpl@WTF@@@2@PEBE@Z
        ?add@AtomicString@WTF@@CA?AV?$PassRefPtr@VStringImpl@WTF@@@2@PEB_WI@Z
        ?addSlowCase@AtomicString@WTF@@CA?AV?$PassRefPtr@VStringImpl@WTF@@@2@PEAVStringImpl@2@@Z
        ?cacheDOMStructure@WebCore@@YAPEAVStructure@JSC@@PEAVJSDOMGlobalObject@1@PEAV23@PEBUClassInfo@3@@Z
        ?childItemWithTarget@HistoryItem@WebCore@@QEBAPEAV12@AEBVString@WTF@@@Z
        ?create@HTMLContentElement@WebCore@@SA?AV?$PassRefPtr@VHTMLContentElement@WebCore@@@WTF@@PEAVDocument@2@@Z
        ?create@Range@WebCore@@SA?AV?$PassRefPtr@VRange@WebCore@@@WTF@@V?$PassRefPtr@VDocument@WebCore@@@4@V?$PassRefPtr@VNode@WebCore@@@4@H1H@Z
        ?create@ShadowRoot@WebCore@@SA?AV?$PassRefPtr@VShadowRoot@WebCore@@@WTF@@PEAVElement@2@AEAH@Z
        ?createWrapper@WebCore@@YA?AVJSValue@JSC@@PEAVExecState@3@PEAVJSDOMGlobalObject@1@PEAVNode@1@@Z
        ?documentState@HistoryItem@WebCore@@QEBAAEBV?$Vector@VString@WTF@@$0A@@WTF@@XZ
        ?equal@WTF@@YA_NPEBVStringImpl@1@PEBE@Z
        ?equal@WTF@@YA_NPEBVStringImpl@1@0@Z
        ?equalIgnoringCase@WTF@@YA_NPEAVStringImpl@1@PEBE@Z
        ?externalRepresentation@WebCore@@YA?AVString@WTF@@PEAVElement@1@I@Z
		?find@StringImpl@WTF@@QEAA_KPEAV12@I@Z
        ?find@StringImpl@WTF@@QEAA_KPEAV12@@Z
        ?absoluteCaretBounds@FrameSelection@WebCore@@QEAA?AVIntRect@2@XZ
        ?fromUTF8WithLatin1Fallback@String@WTF@@SA?AV12@PEBE_K@Z
		?garbageCollectDocumentResources@CachedResourceLoader@WebCore@@QEAAXXZ
        ?getCachedDOMStructure@WebCore@@YAPEAVStructure@JSC@@PEAVJSDOMGlobalObject@1@PEBUClassInfo@3@@Z
        ?getData16SlowCase@StringImpl@WTF@@AEBAPEB_WXZ
        ?getElementById@TreeScope@WebCore@@QEBAPEAVElement@2@AEBVAtomicString@WTF@@@Z
        ?getHighlight@InspectorController@WebCore@@QEBAXPEAUHighlight@2@@Z
        ?getLocationAndLengthFromRange@TextIterator@WebCore@@SA_NPEAVElement@2@PEBVRange@2@AEA_K2@Z
        ?inputTag@HTMLNames@WebCore@@3VQualifiedName@2@B
        ?instrumentingAgentsForPage@InspectorInstrumentation@WebCore@@CAPEAVInstrumentingAgents@2@PEAVPage@2@@Z
        ?isActiveInsertionPoint@WebCore@@YA_NPEBVNode@1@@Z
        ?isCSSExclusionsEnabled@RuntimeEnabledFeatures@WebCore@@0_NA
        ?isPreloaded@CachedResourceLoader@WebCore@@QEBA_NAEBVString@WTF@@@Z
        ?jsArray@WebCore@@YA?AVJSValue@JSC@@PEAVExecState@3@PEAVJSDOMGlobalObject@1@V?$PassRefPtr@VDOMStringList@WebCore@@@WTF@@@Z
        ?lastChangeWasUserEdit@HTMLTextFormControlElement@WebCore@@QEBA_NXZ
        ?markersFor@DocumentMarkerController@WebCore@@QEAA?AV?$Vector@PEAVDocumentMarker@WebCore@@$0A@@WTF@@PEAVNode@2@VMarkerTypes@DocumentMarker@2@@Z
        ?nextSibling@ComposedShadowTreeWalker@WebCore@@QEAAXXZ
        ?firstChild@ComposedShadowTreeWalker@WebCore@@QEAAXXZ
        ?lastChild@ComposedShadowTreeWalker@WebCore@@QEAAXXZ
        ?next@ComposedShadowTreeWalker@WebCore@@QEAAXXZ
        ?previous@ComposedShadowTreeWalker@WebCore@@QEAAXXZ
        ?number@String@WTF@@SA?AV12@I@Z
        ?number@String@WTF@@SA?AV12@H@Z
        ?overrideUserPreferredLanguages@WebCore@@YAXAEBV?$Vector@VString@WTF@@$0A@@WTF@@@Z
        ?numberOfScopedHTMLStyleChildren@Node@WebCore@@QEBA_KXZ
        ?page@Document@WebCore@@QEBAPEAVPage@2@XZ
		?pageNumberForElement@PrintContext@WebCore@@SAHPEAVElement@2@AEBVFloatSize@2@@Z
        ?paintControlTints@FrameView@WebCore@@AEAAXXZ
        ?placeholderShouldBeVisible@HTMLTextFormControlElement@WebCore@@QEBA_NXZ
        ?rangeFromLocationAndLength@TextIterator@WebCore@@SA?AV?$PassRefPtr@VRange@WebCore@@@WTF@@PEAVContainerNode@2@HH_N@Z
        ?remove@String@WTF@@QEAAXIH@Z
        ?removedLastRef@Node@WebCore@@AEAAXXZ
        ?reverseFind@StringImpl@WTF@@QEAA_K_WI@Z
        ?s_frontendCounter@InspectorInstrumentation@WebCore@@0HA
        ?scriptExecutionContext@JSDOMGlobalObject@WebCore@@QEBAPEAVScriptExecutionContext@2@XZ
        ?scriptNameToCode@WebCore@@YA?AW4UScriptCode@@AEBVString@WTF@@@Z
        ?scrollElementToRect@FrameView@WebCore@@QEAAXPEAVElement@2@AEBVIntRect@2@@Z
        ?setCursiveFontFamily@Settings@WebCore@@QEAAXAEBVAtomicString@WTF@@W4UScriptCode@@@Z
        ?setDeviceScaleFactor@Page@WebCore@@QEAAXM@Z
        ?setDOMException@WebCore@@YAXPEAVExecState@JSC@@H@Z
        ?setDocumentState@HistoryItem@WebCore@@QEAAXAEBV?$Vector@VString@WTF@@$0A@@WTF@@@Z
        ?setFantasyFontFamily@Settings@WebCore@@QEAAXAEBVAtomicString@WTF@@W4UScriptCode@@@Z
        ?setFixedFontFamily@Settings@WebCore@@QEAAXAEBVAtomicString@WTF@@W4UScriptCode@@@Z
        ?setMockScrollbarsEnabled@Settings@WebCore@@SAX_N@Z
        ?setPageScaleFactor@Page@WebCore@@QEAAXMAEBVIntPoint@2@@Z
        ?setPagination@Page@WebCore@@QEAAXAEBUPagination@12@@Z
        ?setPictographFontFamily@Settings@WebCore@@QEAAXAEBVAtomicString@WTF@@W4UScriptCode@@@Z
        ?setResourcesDataSizeLimitsFromInternals@InspectorController@WebCore@@QEAAXHH@Z
        ?setSansSerifFontFamily@Settings@WebCore@@QEAAXAEBVAtomicString@WTF@@W4UScriptCode@@@Z
        ?setScrollbarsSuppressed@ScrollView@WebCore@@QEAAX_N0@Z
        ?setShadowPseudoId@Element@WebCore@@QEAAXAEBVAtomicString@WTF@@AEAH@Z
        ?setDelegatesScrolling@ScrollView@WebCore@@QEAAX_N@Z
        ?setScrollOffsetFromInternals@ScrollableArea@WebCore@@QEAAXAEBVIntPoint@2@@Z
        ?setSerifFontFamily@Settings@WebCore@@QEAAXAEBVAtomicString@WTF@@W4UScriptCode@@@Z
        ?setStandardFontFamily@Settings@WebCore@@QEAAXAEBVAtomicString@WTF@@W4UScriptCode@@@Z
        ?setSuggestedValue@HTMLInputElement@WebCore@@QEAAXAEBVString@WTF@@@Z
        ?setEditingValue@HTMLInputElement@WebCore@@QEAAXAEBVString@WTF@@@Z
        ?settings@Document@WebCore@@QEBAPEAVSettings@2@XZ
        ?settings@Frame@WebCore@@QEBAPEAVSettings@2@XZ
        ?setFixedElementsLayoutRelativeToFrame@Settings@WebCore@@QEAAX_N@Z
        ?shadow@Element@WebCore@@QEBAPEAVElementShadow@2@XZ
        ?substring@String@WTF@@QEBA?AV12@II@Z
        ?suggestedValue@HTMLInputElement@WebCore@@QEBAAEBVString@WTF@@XZ
        ?target@HistoryItem@WebCore@@QEBAAEBVString@WTF@@XZ
        ?text@Range@WebCore@@QEBA?AVString@WTF@@XZ
        ?textContent@Node@WebCore@@QEBA?AVString@WTF@@_N@Z
        ?toDocument@WebCore@@YAPEAVDocument@1@VJSValue@JSC@@@Z
        ?toDOMStringList@WebCore@@YA?AV?$PassRefPtr@VDOMStringList@WebCore@@@WTF@@PEAVExecState@JSC@@VJSValue@5@@Z
        ?toElement@WebCore@@YAPEAVElement@1@VJSValue@JSC@@@Z
        ?toJS@WebCore@@YA?AVJSValue@JSC@@PEAVExecState@3@PEAVJSDOMGlobalObject@1@PEAVClientRect@1@@Z
        ?toJS@WebCore@@YA?AVJSValue@JSC@@PEAVExecState@3@PEAVJSDOMGlobalObject@1@PEAVClientRectList@1@@Z
        ?toJS@WebCore@@YA?AVJSValue@JSC@@PEAVExecState@3@PEAVJSDOMGlobalObject@1@PEAVNode@1@@Z
        ?toJS@WebCore@@YA?AVJSValue@JSC@@PEAVExecState@3@PEAVJSDOMGlobalObject@1@PEAVRange@1@@Z
        ?toJS@WebCore@@YA?AVJSValue@JSC@@PEAVExecState@3@PEAVJSDOMGlobalObject@1@PEAVNodeList@1@@Z
        ?toRange@WebCore@@YAPEAVRange@1@VJSValue@JSC@@@Z
        ?treeScope@Node@WebCore@@QEBAPEAVTreeScope@2@XZ
        ?updateLayoutIgnorePendingStylesheets@Document@WebCore@@QEAAXXZ
        ?userPreferredLanguages@WebCore@@YA?AV?$Vector@VString@WTF@@$0A@@WTF@@XZ
        ?utf8@String@WTF@@QEBA?AVCString@2@_N@Z
        ?view@Document@WebCore@@QEBAPEAVFrameView@2@XZ
        ?nodesFromRect@Document@WebCore@@QEBA?AV?$PassRefPtr@VNodeList@WebCore@@@WTF@@HHIIII_N0@Z
        ?selectionStartHasMarkerFor@Editor@WebCore@@QEBA_NW4MarkerType@DocumentMarker@2@HH@Z
        ?restrictScaleFactorToInitialScaleIfNotUserScalable@WebCore@@YAXAEAUViewportAttributes@1@@Z
        ?restrictMinimumScaleFactorToViewportSize@WebCore@@YAXAEAUViewportAttributes@1@VIntSize@1@@Z
        ?computeViewportAttributes@WebCore@@YA?AUViewportAttributes@1@UViewportArguments@1@HHHMVIntSize@1@@Z
        ?viewportArguments@Page@WebCore@@QEBA?AUViewportArguments@2@XZ
        ?isPageBoxVisible@Document@WebCore@@QEAA_NH@Z
        ?isActive@InsertionPoint@WebCore@@QEBA_NXZ
        ?suspendAnimations@AnimationController@WebCore@@QEAAXXZ
        ?resumeAnimations@AnimationController@WebCore@@QEAAXXZ
        ?setAllowsRoundingHacks@TextRun@WebCore@@SAX_N@Z
        ?profilerEnabled@InspectorController@WebCore@@QEAA_NXZ
        ?setProfilerEnabled@InspectorController@WebCore@@QEAAX_N@Z
        ??1ContextDestructionObserver@WebCore@@MEAA@XZ
        ?jsStringSlowCase@WebCore@@YA?AVJSValue@JSC@@PEAVExecState@3@AEAV?$HashMap@PEAVStringImpl@WTF@@V?$Weak@VJSString@JSC@@@JSC@@U?$PtrHash@PEAVStringImpl@WTF@@@2@U?$HashTraits@PEAVStringImpl@WTF@@@2@U?$HashTraits@V?$Weak@VJSString@JSC@@@JSC@@@2@@WTF@@PEAVStringImpl@6@@Z
		?registerURLSchemeAsBypassingContentSecurityPolicy@SchemeRegistry@WebCore@@SAXAEBVString@WTF@@@Z
        ?removeURLSchemeRegisteredAsBypassingContentSecurityPolicy@SchemeRegistry@WebCore@@SAXAEBVString@WTF@@@Z
